target datalayout = "e-m:e-p270:32:32-p271:32:32-p272:64:64-i64:64-i128:128-f80:128-n8:16:32:64-S128"
target triple = "x86_64-pc-linux-gnu"

%struct.CodeHeapStat = type { ptr, ptr, ptr, ptr, ptr, i64, i64, i64, i8, i32, i32, i32, i32, i32, i32, i32, i32, i32, i32, i32, i32 }

@SegmentedCodeCache = external global i8, align 1
@_ZL6nHeaps = internal global i32 0, align 4
@_ZL17CodeHeapStatArray = internal global [10 x %struct.CodeHeapStat] zeroinitializer, align 16
@.str.23 = private unnamed_addr constant [46 x i8] c"Too many heap segments for current limit(%d).\00", align 1
@_ZL9StatArray = internal global ptr null, align 8
@_ZL8seg_size = internal global i64 0, align 8
@_ZL14alloc_granules = internal global i64 0, align 8
@_ZL12granule_size = internal global i64 0, align 8
@_ZL16segment_granules = internal global i8 0, align 1
@_ZL10nBlocks_t1 = internal global i32 0, align 4
@_ZL10nBlocks_t2 = internal global i32 0, align 4
@_ZL13nBlocks_alive = internal global i32 0, align 4
@_ZL12nBlocks_stub = internal global i32 0, align 4
@_ZL9FreeArray = internal global ptr null, align 8
@_ZL16alloc_freeBlocks = internal global i32 0, align 4
@_ZL12TopSizeArray = internal global ptr null, align 8
@_ZL19alloc_topSizeBlocks = internal global i32 0, align 4
@_ZL18used_topSizeBlocks = internal global i32 0, align 4
@_ZL21SizeDistributionArray = internal global ptr null, align 8

; Function Attrs: mustprogress nounwind uwtable
define hidden noundef i32 @_ZN13CodeHeapState13findHeapIndexEP12outputStreamPKc(ptr noundef %0, ptr noundef %1) #1 align 2 {
  %3 = alloca i32, align 4
  %4 = alloca ptr, align 8
  %5 = alloca ptr, align 8
  %6 = alloca i32, align 4
  store ptr %0, ptr %4, align 8
  store ptr %1, ptr %5, align 8
  %7 = load ptr, ptr %5, align 8
  %8 = icmp eq ptr %7, null
  br i1 %8, label %9, label %10

9:                                                ; preds = %2
  store i32 10, ptr %3, align 4
  br label %55

10:                                               ; preds = %2
  %11 = load i8, ptr @SegmentedCodeCache, align 1
  %12 = trunc i8 %11 to i1
  br i1 %12, label %13, label %53

13:                                               ; preds = %10
  store i32 0, ptr %6, align 4
  br label %14

14:                                               ; preds = %37, %13
  %15 = load i32, ptr %6, align 4
  %16 = load i32, ptr @_ZL6nHeaps, align 4
  %17 = icmp ult i32 %15, %16
  br i1 %17, label %18, label %40

18:                                               ; preds = %14
  %19 = load i32, ptr %6, align 4
  %20 = zext i32 %19 to i64
  %21 = getelementptr inbounds [10 x %struct.CodeHeapStat], ptr @_ZL17CodeHeapStatArray, i64 0, i64 %20
  %22 = getelementptr inbounds %struct.CodeHeapStat, ptr %21, i32 0, i32 4
  %23 = load ptr, ptr %22, align 8
  %24 = icmp ne ptr %23, null
  br i1 %24, label %25, label %36

25:                                               ; preds = %18
  %26 = load ptr, ptr %5, align 8
  %27 = load i32, ptr %6, align 4
  %28 = zext i32 %27 to i64
  %29 = getelementptr inbounds [10 x %struct.CodeHeapStat], ptr @_ZL17CodeHeapStatArray, i64 0, i64 %28
  %30 = getelementptr inbounds %struct.CodeHeapStat, ptr %29, i32 0, i32 4
  %31 = load ptr, ptr %30, align 8
  %32 = call i32 @strcmp(ptr noundef %26, ptr noundef %31) #8
  %33 = icmp eq i32 %32, 0
  br i1 %33, label %34, label %36

34:                                               ; preds = %25
  %35 = load i32, ptr %6, align 4
  store i32 %35, ptr %3, align 4
  br label %55

36:                                               ; preds = %25, %18
  br label %37

37:                                               ; preds = %36
  %38 = load i32, ptr %6, align 4
  %39 = add i32 %38, 1
  store i32 %39, ptr %6, align 4
  br label %14, !llvm.loop !6

40:                                               ; preds = %14
  %41 = load i32, ptr @_ZL6nHeaps, align 4
  %42 = icmp eq i32 %41, 10
  br i1 %42, label %43, label %45

43:                                               ; preds = %40
  %44 = load ptr, ptr %4, align 8
  call void (ptr, ptr, ...) @_ZN12outputStream8print_crEPKcz(ptr noundef nonnull align 8 dereferenceable(56) %44, ptr noundef @.str.23, i32 noundef 10)
  store i32 10, ptr %3, align 4
  br label %55

45:                                               ; preds = %40
  %46 = load ptr, ptr %5, align 8
  %47 = load i32, ptr @_ZL6nHeaps, align 4
  %48 = zext i32 %47 to i64
  %49 = getelementptr inbounds [10 x %struct.CodeHeapStat], ptr @_ZL17CodeHeapStatArray, i64 0, i64 %48
  %50 = getelementptr inbounds %struct.CodeHeapStat, ptr %49, i32 0, i32 4
  store ptr %46, ptr %50, align 8
  %51 = load i32, ptr @_ZL6nHeaps, align 4
  %52 = add i32 %51, 1
  store i32 %52, ptr @_ZL6nHeaps, align 4
  store i32 %51, ptr %3, align 4
  br label %55

53:                                               ; preds = %10
  store i32 1, ptr @_ZL6nHeaps, align 4
  %54 = load ptr, ptr %5, align 8
  store ptr %54, ptr getelementptr inbounds (%struct.CodeHeapStat, ptr @_ZL17CodeHeapStatArray, i32 0, i32 4), align 16
  store i32 0, ptr %3, align 4
  br label %55

55:                                               ; preds = %53, %45, %43, %34, %9
  %56 = load i32, ptr %3, align 4
  ret i32 %56
}

; Function Attrs: mustprogress nounwind uwtable
define hidden void @_ZN13CodeHeapState19set_HeapStatGlobalsEP12outputStreamPKc(ptr noundef %0, ptr noundef %1) #1 align 2 {
  %3 = alloca ptr, align 8
  %4 = alloca ptr, align 8
  %5 = alloca i32, align 4
  store ptr %0, ptr %3, align 8
  store ptr %1, ptr %4, align 8
  %6 = load ptr, ptr %3, align 8
  %7 = load ptr, ptr %4, align 8
  %8 = call noundef i32 @_ZN13CodeHeapState13findHeapIndexEP12outputStreamPKc(ptr noundef %6, ptr noundef %7)
  store i32 %8, ptr %5, align 4
  %9 = load i32, ptr %5, align 4
  %10 = icmp ult i32 %9, 10
  br i1 %10, label %11, label %89

11:                                               ; preds = %2
  %12 = load ptr, ptr @_ZL9StatArray, align 8
  %13 = load i32, ptr %5, align 4
  %14 = zext i32 %13 to i64
  %15 = getelementptr inbounds [10 x %struct.CodeHeapStat], ptr @_ZL17CodeHeapStatArray, i64 0, i64 %14
  %16 = getelementptr inbounds %struct.CodeHeapStat, ptr %15, i32 0, i32 0
  store ptr %12, ptr %16, align 8
  %17 = load i64, ptr @_ZL8seg_size, align 8
  %18 = load i32, ptr %5, align 4
  %19 = zext i32 %18 to i64
  %20 = getelementptr inbounds [10 x %struct.CodeHeapStat], ptr @_ZL17CodeHeapStatArray, i64 0, i64 %19
  %21 = getelementptr inbounds %struct.CodeHeapStat, ptr %20, i32 0, i32 5
  store i64 %17, ptr %21, align 8
  %22 = load i64, ptr @_ZL14alloc_granules, align 8
  %23 = load i32, ptr %5, align 4
  %24 = zext i32 %23 to i64
  %25 = getelementptr inbounds [10 x %struct.CodeHeapStat], ptr @_ZL17CodeHeapStatArray, i64 0, i64 %24
  %26 = getelementptr inbounds %struct.CodeHeapStat, ptr %25, i32 0, i32 6
  store i64 %22, ptr %26, align 8
  %27 = load i64, ptr @_ZL12granule_size, align 8
  %28 = load i32, ptr %5, align 4
  %29 = zext i32 %28 to i64
  %30 = getelementptr inbounds [10 x %struct.CodeHeapStat], ptr @_ZL17CodeHeapStatArray, i64 0, i64 %29
  %31 = getelementptr inbounds %struct.CodeHeapStat, ptr %30, i32 0, i32 7
  store i64 %27, ptr %31, align 8
  %32 = load i8, ptr @_ZL16segment_granules, align 1
  %33 = trunc i8 %32 to i1
  %34 = load i32, ptr %5, align 4
  %35 = zext i32 %34 to i64
  %36 = getelementptr inbounds [10 x %struct.CodeHeapStat], ptr @_ZL17CodeHeapStatArray, i64 0, i64 %35
  %37 = getelementptr inbounds %struct.CodeHeapStat, ptr %36, i32 0, i32 8
  %38 = zext i1 %33 to i8
  store i8 %38, ptr %37, align 8
  %39 = load i32, ptr @_ZL10nBlocks_t1, align 4
  %40 = load i32, ptr %5, align 4
  %41 = zext i32 %40 to i64
  %42 = getelementptr inbounds [10 x %struct.CodeHeapStat], ptr @_ZL17CodeHeapStatArray, i64 0, i64 %41
  %43 = getelementptr inbounds %struct.CodeHeapStat, ptr %42, i32 0, i32 9
  store i32 %39, ptr %43, align 4
  %44 = load i32, ptr @_ZL10nBlocks_t2, align 4
  %45 = load i32, ptr %5, align 4
  %46 = zext i32 %45 to i64
  %47 = getelementptr inbounds [10 x %struct.CodeHeapStat], ptr @_ZL17CodeHeapStatArray, i64 0, i64 %46
  %48 = getelementptr inbounds %struct.CodeHeapStat, ptr %47, i32 0, i32 10
  store i32 %44, ptr %48, align 8
  %49 = load i32, ptr @_ZL13nBlocks_alive, align 4
  %50 = load i32, ptr %5, align 4
  %51 = zext i32 %50 to i64
  %52 = getelementptr inbounds [10 x %struct.CodeHeapStat], ptr @_ZL17CodeHeapStatArray, i64 0, i64 %51
  %53 = getelementptr inbounds %struct.CodeHeapStat, ptr %52, i32 0, i32 11
  store i32 %49, ptr %53, align 4
  %54 = load i32, ptr @_ZL12nBlocks_stub, align 4
  %55 = load i32, ptr %5, align 4
  %56 = zext i32 %55 to i64
  %57 = getelementptr inbounds [10 x %struct.CodeHeapStat], ptr @_ZL17CodeHeapStatArray, i64 0, i64 %56
  %58 = getelementptr inbounds %struct.CodeHeapStat, ptr %57, i32 0, i32 14
  store i32 %54, ptr %58, align 8
  %59 = load ptr, ptr @_ZL9FreeArray, align 8
  %60 = load i32, ptr %5, align 4
  %61 = zext i32 %60 to i64
  %62 = getelementptr inbounds [10 x %struct.CodeHeapStat], ptr @_ZL17CodeHeapStatArray, i64 0, i64 %61
  %63 = getelementptr inbounds %struct.CodeHeapStat, ptr %62, i32 0, i32 1
  store ptr %59, ptr %63, align 8
  %64 = load i32, ptr @_ZL16alloc_freeBlocks, align 4
  %65 = load i32, ptr %5, align 4
  %66 = zext i32 %65 to i64
  %67 = getelementptr inbounds [10 x %struct.CodeHeapStat], ptr @_ZL17CodeHeapStatArray, i64 0, i64 %66
  %68 = getelementptr inbounds %struct.CodeHeapStat, ptr %67, i32 0, i32 15
  store i32 %64, ptr %68, align 4
  %69 = load ptr, ptr @_ZL12TopSizeArray, align 8
  %70 = load i32, ptr %5, align 4
  %71 = zext i32 %70 to i64
  %72 = getelementptr inbounds [10 x %struct.CodeHeapStat], ptr @_ZL17CodeHeapStatArray, i64 0, i64 %71
  %73 = getelementptr inbounds %struct.CodeHeapStat, ptr %72, i32 0, i32 2
  store ptr %69, ptr %73, align 8
  %74 = load i32, ptr @_ZL19alloc_topSizeBlocks, align 4
  %75 = load i32, ptr %5, align 4
  %76 = zext i32 %75 to i64
  %77 = getelementptr inbounds [10 x %struct.CodeHeapStat], ptr @_ZL17CodeHeapStatArray, i64 0, i64 %76
  %78 = getelementptr inbounds %struct.CodeHeapStat, ptr %77, i32 0, i32 16
  store i32 %74, ptr %78, align 8
  %79 = load i32, ptr @_ZL18used_topSizeBlocks, align 4
  %80 = load i32, ptr %5, align 4
  %81 = zext i32 %80 to i64
  %82 = getelementptr inbounds [10 x %struct.CodeHeapStat], ptr @_ZL17CodeHeapStatArray, i64 0, i64 %81
  %83 = getelementptr inbounds %struct.CodeHeapStat, ptr %82, i32 0, i32 17
  store i32 %79, ptr %83, align 4
  %84 = load ptr, ptr @_ZL21SizeDistributionArray, align 8
  %85 = load i32, ptr %5, align 4
  %86 = zext i32 %85 to i64
  %87 = getelementptr inbounds [10 x %struct.CodeHeapStat], ptr @_ZL17CodeHeapStatArray, i64 0, i64 %86
  %88 = getelementptr inbounds %struct.CodeHeapStat, ptr %87, i32 0, i32 3
  store ptr %84, ptr %88, align 8
  br label %89

89:                                               ; preds = %11, %2
  ret void
}