; Function Attrs: mustprogress nounwind uwtable
define hidden void @_ZN13CodeHeapState19set_HeapStatGlobalsEP12outputStreamPKc(ptr noundef %0, ptr noundef %1) local_unnamed_addr #1 align 2 {
  %3 = icmp eq ptr %1, null
  br i1 %3, label %_ZN13CodeHeapState13findHeapIndexEP12outputStreamPKc.exit.thread, label %4

4:                                                ; preds = %2
  %5 = load i8, ptr @SegmentedCodeCache, align 1
  %6 = trunc i8 %5 to i1
  br i1 %6, label %.preheader.i, label %_ZN13CodeHeapState13findHeapIndexEP12outputStreamPKc.exit.thread18

.preheader.i:                                     ; preds = %4
  %7 = load i32, ptr @_ZL6nHeaps, align 4
  %.not17.i = icmp eq i32 %7, 0
  br i1 %.not17.i, label %._crit_edge.thread.i, label %.lr.ph.preheader.i

.lr.ph.preheader.i:                               ; preds = %.preheader.i
  %wide.trip.count.i = zext i32 %7 to i64
  br label %.lr.ph.i

.lr.ph.i:                                         ; preds = %13, %.lr.ph.preheader.i
  %indvars.iv.i = phi i64 [ 0, %.lr.ph.preheader.i ], [ %indvars.iv.next.i, %13 ]
  %8 = getelementptr inbounds [10 x %struct.CodeHeapStat], ptr @_ZL17CodeHeapStatArray, i64 0, i64 %indvars.iv.i, i32 4
  %9 = load ptr, ptr %8, align 8
  %.not.i = icmp eq ptr %9, null
  br i1 %.not.i, label %13, label %10

10:                                               ; preds = %.lr.ph.i
  %11 = tail call i32 @strcmp(ptr noundef nonnull dereferenceable(1) %1, ptr noundef nonnull dereferenceable(1) %9) #11
  %12 = icmp eq i32 %11, 0
  br i1 %12, label %.loopexit.loopexit.i, label %13

13:                                               ; preds = %10, %.lr.ph.i
  %indvars.iv.next.i = add nuw nsw i64 %indvars.iv.i, 1
  %exitcond.not.i = icmp eq i64 %indvars.iv.next.i, %wide.trip.count.i
  br i1 %exitcond.not.i, label %._crit_edge.i, label %.lr.ph.i, !llvm.loop !6

._crit_edge.i:                                    ; preds = %13
  %14 = icmp eq i32 %7, 10
  br i1 %14, label %15, label %._crit_edge.thread.i

15:                                               ; preds = %._crit_edge.i
  tail call void (ptr, ptr, ...) @_ZN12outputStream8print_crEPKcz(ptr noundef nonnull align 8 dereferenceable(56) %0, ptr noundef nonnull @.str.23, i32 noundef 10) #12
  br label %_ZN13CodeHeapState13findHeapIndexEP12outputStreamPKc.exit.thread

._crit_edge.thread.i:                             ; preds = %.preheader.i, %._crit_edge.i
  %.pre-phi = phi i64 [ %wide.trip.count.i, %._crit_edge.i ], [ 0, %.preheader.i ]
  %16 = getelementptr inbounds [10 x %struct.CodeHeapStat], ptr @_ZL17CodeHeapStatArray, i64 0, i64 %.pre-phi, i32 4
  store ptr %1, ptr %16, align 8
  %17 = add i32 %7, 1
  store i32 %17, ptr @_ZL6nHeaps, align 4
  br label %_ZN13CodeHeapState13findHeapIndexEP12outputStreamPKc.exit

_ZN13CodeHeapState13findHeapIndexEP12outputStreamPKc.exit.thread18: ; preds = %4
  store i32 1, ptr @_ZL6nHeaps, align 4
  store ptr %1, ptr getelementptr inbounds (i8, ptr @_ZL17CodeHeapStatArray, i64 32), align 16
  br label %20

.loopexit.loopexit.i:                             ; preds = %10
  %18 = trunc nuw i64 %indvars.iv.i to i32
  br label %_ZN13CodeHeapState13findHeapIndexEP12outputStreamPKc.exit

_ZN13CodeHeapState13findHeapIndexEP12outputStreamPKc.exit: ; preds = %._crit_edge.thread.i, %.loopexit.loopexit.i
  %.010.i = phi i32 [ %7, %._crit_edge.thread.i ], [ %18, %.loopexit.loopexit.i ]
  %19 = icmp ult i32 %.010.i, 10
  br i1 %19, label %20, label %_ZN13CodeHeapState13findHeapIndexEP12outputStreamPKc.exit.thread

20:                                               ; preds = %_ZN13CodeHeapState13findHeapIndexEP12outputStreamPKc.exit.thread18, %_ZN13CodeHeapState13findHeapIndexEP12outputStreamPKc.exit
  %.010.i20 = phi i32 [ 0, %_ZN13CodeHeapState13findHeapIndexEP12outputStreamPKc.exit.thread18 ], [ %.010.i, %_ZN13CodeHeapState13findHeapIndexEP12outputStreamPKc.exit ]
  %21 = load ptr, ptr @_ZL9StatArray, align 8
  %22 = zext nneg i32 %.010.i20 to i64
  %23 = getelementptr inbounds [10 x %struct.CodeHeapStat], ptr @_ZL17CodeHeapStatArray, i64 0, i64 %22
  store ptr %21, ptr %23, align 8
  %24 = load i64, ptr @_ZL8seg_size, align 8
  %25 = getelementptr inbounds i8, ptr %23, i64 40
  store i64 %24, ptr %25, align 8
  %26 = load i64, ptr @_ZL14alloc_granules, align 8
  %27 = getelementptr inbounds i8, ptr %23, i64 48
  store i64 %26, ptr %27, align 8
  %28 = load i64, ptr @_ZL12granule_size, align 8
  %29 = getelementptr inbounds i8, ptr %23, i64 56
  store i64 %28, ptr %29, align 8
  %30 = load i8, ptr @_ZL16segment_granules, align 1
  %31 = getelementptr inbounds i8, ptr %23, i64 64
  %32 = and i8 %30, 1
  store i8 %32, ptr %31, align 8
  %33 = load i32, ptr @_ZL10nBlocks_t1, align 4
  %34 = getelementptr inbounds i8, ptr %23, i64 68
  store i32 %33, ptr %34, align 4
  %35 = load i32, ptr @_ZL10nBlocks_t2, align 4
  %36 = getelementptr inbounds i8, ptr %23, i64 72
  store i32 %35, ptr %36, align 8
  %37 = load i32, ptr @_ZL13nBlocks_alive, align 4
  %38 = getelementptr inbounds i8, ptr %23, i64 76
  store i32 %37, ptr %38, align 4
  %39 = load i32, ptr @_ZL12nBlocks_stub, align 4
  %40 = getelementptr inbounds i8, ptr %23, i64 88
  store i32 %39, ptr %40, align 8
  %41 = load ptr, ptr @_ZL9FreeArray, align 8
  %42 = getelementptr inbounds i8, ptr %23, i64 8
  store ptr %41, ptr %42, align 8
  %43 = load i32, ptr @_ZL16alloc_freeBlocks, align 4
  %44 = getelementptr inbounds i8, ptr %23, i64 92
  store i32 %43, ptr %44, align 4
  %45 = load ptr, ptr @_ZL12TopSizeArray, align 8
  %46 = getelementptr inbounds i8, ptr %23, i64 16
  store ptr %45, ptr %46, align 8
  %47 = load i32, ptr @_ZL19alloc_topSizeBlocks, align 4
  %48 = getelementptr inbounds i8, ptr %23, i64 96
  store i32 %47, ptr %48, align 8
  %49 = load i32, ptr @_ZL18used_topSizeBlocks, align 4
  %50 = getelementptr inbounds i8, ptr %23, i64 100
  store i32 %49, ptr %50, align 4
  %51 = load ptr, ptr @_ZL21SizeDistributionArray, align 8
  %52 = getelementptr inbounds i8, ptr %23, i64 24
  store ptr %51, ptr %52, align 8
  br label %_ZN13CodeHeapState13findHeapIndexEP12outputStreamPKc.exit.thread

_ZN13CodeHeapState13findHeapIndexEP12outputStreamPKc.exit.thread: ; preds = %2, %15, %20, %_ZN13CodeHeapState13findHeapIndexEP12outputStreamPKc.exit
  ret void
}